; Function Attrs: mustprogress nofree nounwind willreturn uwtable
define noalias noundef ptr @_ZN10duckdb_hll6sdsnewEPKc(ptr noundef readonly captures(address_is_null) %0) local_unnamed_addr #0 {
  %2 = icmp eq ptr %0, null
  br i1 %2, label %_ZN10duckdb_hll9sdsnewlenEPKvm.exit, label %.split

_ZN10duckdb_hll9sdsnewlenEPKvm.exit:              ; preds = %1
  %calloc = tail call dereferenceable_or_null(5) ptr @calloc(i64 1, i64 5)
  %3 = getelementptr inbounds nuw i8, ptr %calloc, i64 4
  %4 = getelementptr inbounds nuw i8, ptr %calloc, i64 3
  store i8 1, ptr %4, align 1, !tbaa !20
  br label %_ZN10duckdb_hll9sdsnewlenEPKvm.exit5

.split:                                           ; preds = %1
  %5 = tail call i64 @strlen(ptr noundef nonnull dereferenceable(1) %0) #29
  %6 = icmp ult i64 %5, 32
  br i1 %6, label %_ZN10duckdb_hllL10sdsReqTypeEm.exit.i, label %7

7:                                                ; preds = %.split
  %8 = icmp ult i64 %5, 256
  br i1 %8, label %_ZN10duckdb_hllL10sdsReqTypeEm.exit.i, label %9

9:                                                ; preds = %7
  %10 = icmp ult i64 %5, 65536
  br i1 %10, label %_ZN10duckdb_hllL10sdsReqTypeEm.exit.i, label %11

11:                                               ; preds = %9
  %12 = icmp ult i64 %5, 4294967296
  %..i.i = select i1 %12, i8 3, i8 4
  br label %_ZN10duckdb_hllL10sdsReqTypeEm.exit.i

_ZN10duckdb_hllL10sdsReqTypeEm.exit.i:            ; preds = %11, %9, %7, %.split
  %.0.i.i = phi i8 [ 0, %.split ], [ 1, %7 ], [ 2, %9 ], [ %..i.i, %11 ]
  %13 = icmp eq i8 %.0.i.i, 0
  %14 = icmp eq i64 %5, 0
  %or.cond.i = and i1 %14, %13
  %spec.store.select.i = select i1 %or.cond.i, i8 1, i8 %.0.i.i
  %15 = zext nneg i8 %spec.store.select.i to i64
  %switch.gep = getelementptr inbounds nuw [5 x i64], ptr @switch.table._ZN10duckdb_hll11sdssplitlenEPKclS1_iPi.2, i64 0, i64 %15
  %switch.load = load i64, ptr %switch.gep, align 8
  %16 = add i64 %5, 1
  %17 = add i64 %16, %switch.load
  %18 = tail call noalias ptr @malloc(i64 noundef %17) #28
  %19 = icmp eq ptr %18, null
  br i1 %19, label %_ZN10duckdb_hll9sdsnewlenEPKvm.exit5, label %20

default.unreachable:                              ; preds = %20
  unreachable

20:                                               ; preds = %_ZN10duckdb_hllL10sdsReqTypeEm.exit.i
  %21 = getelementptr inbounds nuw i8, ptr %18, i64 %switch.load
  %22 = getelementptr inbounds i8, ptr %21, i64 -1
  switch i8 %spec.store.select.i, label %default.unreachable [
    i8 0, label %23
    i8 1, label %25
    i8 2, label %29
    i8 3, label %33
    i8 4, label %37
  ]

23:                                               ; preds = %20
  %.tr.i = trunc i64 %5 to i8
  %24 = shl i8 %.tr.i, 3
  br label %40

25:                                               ; preds = %20
  %26 = getelementptr inbounds i8, ptr %21, i64 -4
  %27 = trunc i64 %5 to i8
  store i8 %27, ptr %26, align 1, !tbaa !3
  %28 = getelementptr inbounds i8, ptr %21, i64 -3
  store i8 %27, ptr %28, align 1, !tbaa !7
  br label %40

29:                                               ; preds = %20
  %30 = getelementptr inbounds i8, ptr %21, i64 -6
  %31 = trunc i64 %5 to i16
  store i16 %31, ptr %30, align 1, !tbaa !8
  %32 = getelementptr inbounds i8, ptr %21, i64 -4
  store i16 %31, ptr %32, align 1, !tbaa !11
  br label %40

33:                                               ; preds = %20
  %34 = getelementptr inbounds i8, ptr %21, i64 -10
  %35 = trunc i64 %5 to i32
  store i32 %35, ptr %34, align 1, !tbaa !12
  %36 = getelementptr inbounds i8, ptr %21, i64 -6
  store i32 %35, ptr %36, align 1, !tbaa !15
  br label %40

37:                                               ; preds = %20
  %38 = getelementptr inbounds i8, ptr %21, i64 -18
  store i64 %5, ptr %38, align 1, !tbaa !16
  %39 = getelementptr inbounds i8, ptr %21, i64 -10
  store i64 %5, ptr %39, align 1, !tbaa !19
  br label %40

40:                                               ; preds = %37, %33, %29, %25, %23
  %.sink.i = phi i8 [ 4, %37 ], [ 3, %33 ], [ 2, %29 ], [ 1, %25 ], [ %24, %23 ]
  store i8 %.sink.i, ptr %22, align 1, !tbaa !20
  br i1 %14, label %42, label %41

41:                                               ; preds = %40
  tail call void @llvm.memcpy.p0.p0.i64(ptr nonnull align 1 %21, ptr nonnull readonly align 1 %0, i64 %5, i1 false)
  br label %42

42:                                               ; preds = %41, %40
  %43 = getelementptr inbounds nuw i8, ptr %21, i64 %5
  store i8 0, ptr %43, align 1, !tbaa !20
  br label %_ZN10duckdb_hll9sdsnewlenEPKvm.exit5

_ZN10duckdb_hll9sdsnewlenEPKvm.exit5:             ; preds = %42, %_ZN10duckdb_hllL10sdsReqTypeEm.exit.i, %_ZN10duckdb_hll9sdsnewlenEPKvm.exit
  %phi.call = phi ptr [ %3, %_ZN10duckdb_hll9sdsnewlenEPKvm.exit ], [ %21, %42 ], [ null, %_ZN10duckdb_hllL10sdsReqTypeEm.exit.i ]
  ret ptr %phi.call
}